target datalayout = "e-m:e-p270:32:32-p271:32:32-p272:64:64-i64:64-i128:128-f80:128-n8:16:32:64-S128"
target triple = "x86_64-pc-linux-gnu"

%struct.Cbs3_Par_t_ = type { i32, i32, i32, i32, i32, i32, i32, i32 }
%struct.Cbs3_Man_t_ = type { %struct.Cbs3_Par_t_, ptr, %struct.Cbs3_Que_t_, %struct.Cbs3_Que_t_, %struct.Cbs3_Que_t_, ptr, ptr, i32, i32, i32, %struct.Vec_Int_t_, %struct.Vec_Int_t_, %struct.Vec_Int_t_, %struct.Vec_Wec_t_, %struct.Vec_Str_t_, %struct.Vec_Str_t_, %struct.Vec_Int_t_, %struct.Vec_Int_t_, %struct.Vec_Int_t_, %struct.Vec_Int_t_, i32, i32, i32, i32, i32, i32, i32, i64, i64, i64, i64, i64, i64, [3 x i32], [2 x i32], i32, i32 }
%struct.Cbs3_Que_t_ = type { i32, i32, i32, ptr }
%struct.Vec_Wec_t_ = type { i32, i32, ptr }
%struct.Vec_Str_t_ = type { i32, i32, ptr }
%struct.Vec_Int_t_ = type { i32, i32, ptr }

; Function Attrs: inlinehint nounwind uwtable
define internal void @Vec_IntWriteEntry(ptr noundef %0, i32 noundef %1, i32 noundef %2) #5 {
  %4 = alloca ptr, align 8
  %5 = alloca i32, align 4
  %6 = alloca i32, align 4
  store ptr %0, ptr %4, align 8, !tbaa !42
  store i32 %1, ptr %5, align 4, !tbaa !16
  store i32 %2, ptr %6, align 4, !tbaa !16
  %7 = load i32, ptr %6, align 4, !tbaa !16
  %8 = load ptr, ptr %4, align 8, !tbaa !42
  %9 = getelementptr inbounds nuw %struct.Vec_Int_t_, ptr %8, i32 0, i32 2
  %10 = load ptr, ptr %9, align 8, !tbaa !45
  %11 = load i32, ptr %5, align 4, !tbaa !16
  %12 = sext i32 %11 to i64
  %13 = getelementptr inbounds i32, ptr %10, i64 %12
  store i32 %7, ptr %13, align 4, !tbaa !16
  ret void
}

; Function Attrs: inlinehint nounwind uwtable
define internal void @Cbs3_VarSetUnused(ptr noundef %0, i32 noundef %1) #5 {
  %3 = alloca ptr, align 8
  %4 = alloca i32, align 4
  store ptr %0, ptr %3, align 8, !tbaa !14
  store i32 %1, ptr %4, align 4, !tbaa !16
  %5 = load ptr, ptr %3, align 8, !tbaa !14
  %6 = getelementptr inbounds nuw %struct.Cbs3_Man_t_, ptr %5, i32 0, i32 16
  %7 = load i32, ptr %4, align 4, !tbaa !16
  %8 = mul nsw i32 3, %7
  call void @Vec_IntWriteEntry(ptr noundef %6, i32 noundef %8, i32 noundef -1)
  ret void
}

; Function Attrs: inlinehint nounwind uwtable
define internal void @Vec_StrWriteEntry(ptr noundef %0, i32 noundef %1, i8 noundef signext %2) #5 {
  %4 = alloca ptr, align 8
  %5 = alloca i32, align 4
  %6 = alloca i8, align 1
  store ptr %0, ptr %4, align 8, !tbaa !50
  store i32 %1, ptr %5, align 4, !tbaa !16
  store i8 %2, ptr %6, align 1, !tbaa !52
  %7 = load i8, ptr %6, align 1, !tbaa !52
  %8 = load ptr, ptr %4, align 8, !tbaa !50
  %9 = getelementptr inbounds nuw %struct.Vec_Str_t_, ptr %8, i32 0, i32 2
  %10 = load ptr, ptr %9, align 8, !tbaa !54
  %11 = load i32, ptr %5, align 4, !tbaa !16
  %12 = sext i32 %11 to i64
  %13 = getelementptr inbounds i8, ptr %10, i64 %12
  store i8 %7, ptr %13, align 1, !tbaa !52
  ret void
}

; Function Attrs: inlinehint nounwind uwtable
define internal signext i8 @Vec_StrEntry(ptr noundef %0, i32 noundef %1) #5 {
  %3 = alloca ptr, align 8
  %4 = alloca i32, align 4
  store ptr %0, ptr %3, align 8, !tbaa !50
  store i32 %1, ptr %4, align 4, !tbaa !16
  %5 = load ptr, ptr %3, align 8, !tbaa !50
  %6 = getelementptr inbounds nuw %struct.Vec_Str_t_, ptr %5, i32 0, i32 2
  %7 = load ptr, ptr %6, align 8, !tbaa !54
  %8 = load i32, ptr %4, align 4, !tbaa !16
  %9 = sext i32 %8 to i64
  %10 = getelementptr inbounds i8, ptr %7, i64 %9
  %11 = load i8, ptr %10, align 1, !tbaa !52
  ret i8 %11
}

; Function Attrs: inlinehint nounwind uwtable
define internal void @Cbs3_VarUnassign(ptr noundef %0, i32 noundef %1) #5 {
  %3 = alloca ptr, align 8
  %4 = alloca i32, align 4
  store ptr %0, ptr %3, align 8, !tbaa !14
  store i32 %1, ptr %4, align 4, !tbaa !16
  %5 = load ptr, ptr %3, align 8, !tbaa !14
  %6 = getelementptr inbounds nuw %struct.Cbs3_Man_t_, ptr %5, i32 0, i32 14
  %7 = load i32, ptr %4, align 4, !tbaa !16
  %8 = load ptr, ptr %3, align 8, !tbaa !14
  %9 = getelementptr inbounds nuw %struct.Cbs3_Man_t_, ptr %8, i32 0, i32 14
  %10 = load i32, ptr %4, align 4, !tbaa !16
  %11 = call signext i8 @Vec_StrEntry(ptr noundef %9, i32 noundef %10)
  %12 = sext i8 %11 to i32
  %13 = add nsw i32 2, %12
  %14 = trunc i32 %13 to i8
  call void @Vec_StrWriteEntry(ptr noundef %6, i32 noundef %7, i8 noundef signext %14)
  %15 = load ptr, ptr %3, align 8, !tbaa !14
  %16 = load i32, ptr %4, align 4, !tbaa !16
  call void @Cbs3_VarSetUnused(ptr noundef %15, i32 noundef %16)
  ret void
}

; Function Attrs: inlinehint nounwind uwtable
define internal i32 @Abc_Lit2Var(i32 noundef %0) #5 {
  %2 = alloca i32, align 4
  store i32 %0, ptr %2, align 4, !tbaa !16
  %3 = load i32, ptr %2, align 4, !tbaa !16
  %4 = ashr i32 %3, 1
  ret i32 %4
}

; Function Attrs: inlinehint nounwind uwtable
define internal void @Cbs3_ManCancelUntil(ptr noundef %0, i32 noundef %1) #5 {
  %3 = alloca ptr, align 8
  %4 = alloca i32, align 4
  %5 = alloca i32, align 4
  %6 = alloca i32, align 4
  store ptr %0, ptr %3, align 8, !tbaa !14
  store i32 %1, ptr %4, align 4, !tbaa !16
  call void @llvm.lifetime.start.p0(i64 4, ptr %5) #12
  call void @llvm.lifetime.start.p0(i64 4, ptr %6) #12
  %7 = load i32, ptr %4, align 4, !tbaa !16
  %8 = load ptr, ptr %3, align 8, !tbaa !14
  %9 = getelementptr inbounds nuw %struct.Cbs3_Man_t_, ptr %8, i32 0, i32 2
  %10 = getelementptr inbounds nuw %struct.Cbs3_Que_t_, ptr %9, i32 0, i32 0
  store i32 %7, ptr %10, align 8, !tbaa !67
  %11 = load ptr, ptr %3, align 8, !tbaa !14
  %12 = getelementptr inbounds nuw %struct.Cbs3_Man_t_, ptr %11, i32 0, i32 2
  %13 = getelementptr inbounds nuw %struct.Cbs3_Que_t_, ptr %12, i32 0, i32 0
  %14 = load i32, ptr %13, align 8, !tbaa !67
  store i32 %14, ptr %5, align 4, !tbaa !16
  br label %15

15:                                               ; preds = %38, %2
  %16 = load i32, ptr %5, align 4, !tbaa !16
  %17 = load ptr, ptr %3, align 8, !tbaa !14
  %18 = getelementptr inbounds nuw %struct.Cbs3_Man_t_, ptr %17, i32 0, i32 2
  %19 = getelementptr inbounds nuw %struct.Cbs3_Que_t_, ptr %18, i32 0, i32 1
  %20 = load i32, ptr %19, align 4, !tbaa !68
  %21 = icmp slt i32 %16, %20
  br i1 %21, label %22, label %32

22:                                               ; preds = %15
  %23 = load ptr, ptr %3, align 8, !tbaa !14
  %24 = getelementptr inbounds nuw %struct.Cbs3_Man_t_, ptr %23, i32 0, i32 2
  %25 = getelementptr inbounds nuw %struct.Cbs3_Que_t_, ptr %24, i32 0, i32 3
  %26 = load ptr, ptr %25, align 8, !tbaa !32
  %27 = load i32, ptr %5, align 4, !tbaa !16
  %28 = sext i32 %27 to i64
  %29 = getelementptr inbounds i32, ptr %26, i64 %28
  %30 = load i32, ptr %29, align 4, !tbaa !16
  store i32 %30, ptr %6, align 4, !tbaa !16
  %31 = icmp ne i32 %30, 0
  br label %32

32:                                               ; preds = %22, %15
  %33 = phi i1 [ false, %15 ], [ %31, %22 ]
  br i1 %33, label %34, label %41

34:                                               ; preds = %32
  %35 = load ptr, ptr %3, align 8, !tbaa !14
  %36 = load i32, ptr %6, align 4, !tbaa !16
  %37 = call i32 @Abc_Lit2Var(i32 noundef %36)
  call void @Cbs3_VarUnassign(ptr noundef %35, i32 noundef %37)
  br label %38

38:                                               ; preds = %34
  %39 = load i32, ptr %5, align 4, !tbaa !16
  %40 = add nsw i32 %39, 1
  store i32 %40, ptr %5, align 4, !tbaa !16
  br label %15, !llvm.loop !88

41:                                               ; preds = %32
  %42 = load i32, ptr %4, align 4, !tbaa !16
  %43 = load ptr, ptr %3, align 8, !tbaa !14
  %44 = getelementptr inbounds nuw %struct.Cbs3_Man_t_, ptr %43, i32 0, i32 2
  %45 = getelementptr inbounds nuw %struct.Cbs3_Que_t_, ptr %44, i32 0, i32 1
  store i32 %42, ptr %45, align 4, !tbaa !68
  call void @llvm.lifetime.end.p0(i64 4, ptr %6) #12
  call void @llvm.lifetime.end.p0(i64 4, ptr %5) #12
  ret void
}