; Function Attrs: inlinehint nofree norecurse nosync nounwind memory(readwrite, inaccessiblemem: none) uwtable
define internal fastcc void @Cbs3_ManCancelUntil(ptr noundef captures(none) initializes((40, 44)) %0, i32 noundef %1) unnamed_addr #11 {
  %3 = getelementptr inbounds nuw i8, ptr %0, i64 40
  store i32 %1, ptr %3, align 8, !tbaa !58
  %4 = getelementptr inbounds nuw i8, ptr %0, i64 56
  %5 = getelementptr inbounds nuw i8, ptr %0, i64 44
  %6 = load i32, ptr %5, align 4, !tbaa !59
  %7 = icmp slt i32 %1, %6
  br i1 %7, label %.lr.ph, label %.critedge

.lr.ph:                                           ; preds = %2
  %8 = getelementptr i8, ptr %0, i64 216
  %9 = getelementptr i8, ptr %0, i64 248
  %10 = sext i32 %1 to i64
  br label %11

11:                                               ; preds = %.lr.ph, %15
  %indvars.iv = phi i64 [ %10, %.lr.ph ], [ %indvars.iv.next, %15 ]
  %12 = load ptr, ptr %4, align 8, !tbaa !26
  %13 = getelementptr inbounds i32, ptr %12, i64 %indvars.iv
  %14 = load i32, ptr %13, align 4, !tbaa !37
  %.not = icmp eq i32 %14, 0
  br i1 %.not, label %.critedge, label %15

15:                                               ; preds = %11
  %16 = ashr i32 %14, 1
  %.val.i = load ptr, ptr %8, align 8, !tbaa !44
  %17 = sext i32 %16 to i64
  %18 = getelementptr inbounds i8, ptr %.val.i, i64 %17
  %19 = load i8, ptr %18, align 1, !tbaa !46
  %20 = add i8 %19, 2
  store i8 %20, ptr %18, align 1, !tbaa !46
  %.val6.i = load ptr, ptr %9, align 8, !tbaa !33
  %21 = mul nsw i32 %16, 3
  %22 = sext i32 %21 to i64
  %23 = getelementptr inbounds i32, ptr %.val6.i, i64 %22
  store i32 -1, ptr %23, align 4, !tbaa !37
  %indvars.iv.next = add nsw i64 %indvars.iv, 1
  %24 = load i32, ptr %5, align 4, !tbaa !59
  %25 = sext i32 %24 to i64
  %26 = icmp slt i64 %indvars.iv.next, %25
  br i1 %26, label %11, label %.critedge, !llvm.loop !72

.critedge:                                        ; preds = %11, %15, %2
  store i32 %1, ptr %5, align 4, !tbaa !59
  ret void
}